target datalayout = "e-m:e-p270:32:32-p271:32:32-p272:64:64-i64:64-i128:128-f80:128-n8:16:32:64-S128"
target triple = "x86_64-pc-linux-gnu"

%struct.ssl_st = type { i32, ptr, ptr, ptr, %struct.CRYPTO_REF_COUNT, ptr, %struct.crypto_ex_data_st }
%struct.CRYPTO_REF_COUNT = type { i32 }
%struct.crypto_ex_data_st = type { ptr, ptr }

; Function Attrs: nounwind uwtable
define ptr @SSL_accept_stream(ptr noundef %0, i64 noundef %1) #0 {
  %3 = alloca ptr, align 8
  %4 = alloca ptr, align 8
  %5 = alloca i64, align 8
  store ptr %0, ptr %4, align 8, !tbaa !16
  store i64 %1, ptr %5, align 8, !tbaa !10
  %6 = load ptr, ptr %4, align 8, !tbaa !16
  %7 = icmp ne ptr %6, null
  br i1 %7, label %8, label %14

8:                                                ; preds = %2
  %9 = load ptr, ptr %4, align 8, !tbaa !16
  %10 = getelementptr inbounds nuw %struct.ssl_st, ptr %9, i32 0, i32 0
  %11 = load i32, ptr %10, align 8, !tbaa !29
  %12 = and i32 %11, 128
  %13 = icmp ne i32 %12, 0
  br i1 %13, label %15, label %14

14:                                               ; preds = %8, %2
  store ptr null, ptr %3, align 8
  br label %19

15:                                               ; preds = %8
  %16 = load ptr, ptr %4, align 8, !tbaa !16
  %17 = load i64, ptr %5, align 8, !tbaa !10
  %18 = call ptr @ossl_quic_accept_stream(ptr noundef %16, i64 noundef %17)
  store ptr %18, ptr %3, align 8
  br label %19

19:                                               ; preds = %15, %14
  %20 = load ptr, ptr %3, align 8
  ret ptr %20
}