; Function Attrs: nounwind uwtable
define ptr @SSL_accept_stream(ptr noundef %0, i64 noundef %1) local_unnamed_addr #0 {
  %.not = icmp eq ptr %0, null
  br i1 %.not, label %8, label %3

3:                                                ; preds = %2
  %4 = load i32, ptr %0, align 8, !tbaa !19
  %5 = and i32 %4, 128
  %.not5 = icmp eq i32 %5, 0
  br i1 %.not5, label %8, label %6

6:                                                ; preds = %3
  %7 = tail call ptr @ossl_quic_accept_stream(ptr noundef nonnull %0, i64 noundef %1) #20
  br label %8

8:                                                ; preds = %2, %3, %6
  %.0 = phi ptr [ %7, %6 ], [ null, %3 ], [ null, %2 ]
  ret ptr %.0
}